target datalayout = "e-m:e-p270:32:32-p271:32:32-p272:64:64-i64:64-i128:128-f80:128-n8:16:32:64-S128"
target triple = "x86_64-unknown-linux-gnu"

%"class.std::__cxx11::basic_string" = type { %"struct.std::__cxx11::basic_string<char>::_Alloc_hider", i64, %union.anon }
%"struct.std::__cxx11::basic_string<char>::_Alloc_hider" = type { ptr }
%union.anon = type { i64, [8 x i8] }
%"class.struct_pb::compiler::FieldGenerator" = type { ptr, %"class.struct_pb::compiler::GeneratorBase", ptr }
%"class.struct_pb::compiler::GeneratorBase" = type { %struct.Options }
%struct.Options = type { i8, %"class.std::__cxx11::basic_string", ptr }
%"class.google::protobuf::FieldDescriptor" = type { ptr, ptr, ptr, ptr, ptr, ptr, ptr, i32, i32, i8, i8, i8, i8, i32, i32, ptr, ptr, ptr, ptr, ptr, ptr, ptr, ptr, %union.anon.3 }
%union.anon.3 = type { i64 }
%"class.google::protobuf::OneofDescriptor" = type { ptr, ptr, ptr, i32, ptr, ptr }

; Function Attrs: mustprogress nounwind uwtable
define linkonce_odr dso_local noundef ptr @_ZNK6google8protobuf15OneofDescriptor5fieldEi(ptr noundef nonnull align 8 dereferenceable(48) %this, i32 noundef %index) #5 comdat align 2 {
entry:
  %this.addr = alloca ptr, align 8
  %index.addr = alloca i32, align 4
  store ptr %this, ptr %this.addr, align 8
  store i32 %index, ptr %index.addr, align 4
  %this1 = load ptr, ptr %this.addr, align 8
  %fields_ = getelementptr inbounds %"class.google::protobuf::OneofDescriptor", ptr %this1, i32 0, i32 4
  %0 = load ptr, ptr %fields_, align 8
  %1 = load i32, ptr %index.addr, align 4
  %idxprom = sext i32 %1 to i64
  %arrayidx = getelementptr inbounds ptr, ptr %0, i64 %idxprom
  %2 = load ptr, ptr %arrayidx, align 8
  ret ptr %2
}

; Function Attrs: mustprogress nounwind uwtable
define linkonce_odr dso_local noundef i32 @_ZNK6google8protobuf15OneofDescriptor11field_countEv(ptr noundef nonnull align 8 dereferenceable(48) %this) #5 comdat align 2 {
entry:
  %this.addr = alloca ptr, align 8
  store ptr %this, ptr %this.addr, align 8
  %this1 = load ptr, ptr %this.addr, align 8
  %field_count_ = getelementptr inbounds %"class.google::protobuf::OneofDescriptor", ptr %this1, i32 0, i32 3
  %0 = load i32, ptr %field_count_, align 8
  ret i32 %0
}

; Function Attrs: mustprogress nounwind uwtable
define linkonce_odr dso_local noundef ptr @_ZNK6google8protobuf15FieldDescriptor16containing_oneofEv(ptr noundef nonnull align 8 dereferenceable(152) %this) #5 comdat align 2 {
entry:
  %this.addr = alloca ptr, align 8
  store ptr %this, ptr %this.addr, align 8
  %this1 = load ptr, ptr %this.addr, align 8
  %containing_oneof_ = getelementptr inbounds %"class.google::protobuf::FieldDescriptor", ptr %this1, i32 0, i32 16
  %0 = load ptr, ptr %containing_oneof_, align 8
  ret ptr %0
}

; Function Attrs: mustprogress uwtable
define dso_local void @_ZNK9struct_pb8compiler19OneofFieldGenerator5indexB5cxx11Ev(ptr noalias sret(%"class.std::__cxx11::basic_string") align 8 %agg.result, ptr noundef nonnull align 8 dereferenceable(64) %this) #4 align 2 {
entry:
  %result.ptr = alloca ptr, align 8
  %this.addr = alloca ptr, align 8
  %oneof = alloca ptr, align 8
  %index = alloca i32, align 4
  %i = alloca i32, align 4
  store ptr %agg.result, ptr %result.ptr, align 8
  store ptr %this, ptr %this.addr, align 8
  %this1 = load ptr, ptr %this.addr, align 8
  %d_ = getelementptr inbounds %"class.struct_pb::compiler::FieldGenerator", ptr %this1, i32 0, i32 2
  %0 = load ptr, ptr %d_, align 8
  %call = call noundef ptr @_ZNK6google8protobuf15FieldDescriptor16containing_oneofEv(ptr noundef nonnull align 8 dereferenceable(152) %0)
  store ptr %call, ptr %oneof, align 8
  store i32 0, ptr %index, align 4
  store i32 0, ptr %i, align 4
  br label %for.cond

for.cond:                                         ; preds = %for.inc, %entry
  %1 = load i32, ptr %i, align 4
  %2 = load ptr, ptr %oneof, align 8
  %call2 = call noundef i32 @_ZNK6google8protobuf15OneofDescriptor11field_countEv(ptr noundef nonnull align 8 dereferenceable(48) %2)
  %cmp = icmp slt i32 %1, %call2
  br i1 %cmp, label %for.body, label %for.end

for.body:                                         ; preds = %for.cond
  %3 = load ptr, ptr %oneof, align 8
  %4 = load i32, ptr %i, align 4
  %call3 = call noundef ptr @_ZNK6google8protobuf15OneofDescriptor5fieldEi(ptr noundef nonnull align 8 dereferenceable(48) %3, i32 noundef %4)
  %d_4 = getelementptr inbounds %"class.struct_pb::compiler::FieldGenerator", ptr %this1, i32 0, i32 2
  %5 = load ptr, ptr %d_4, align 8
  %cmp5 = icmp eq ptr %call3, %5
  br i1 %cmp5, label %if.then, label %if.end

if.then:                                          ; preds = %for.body
  %6 = load i32, ptr %i, align 4
  %add = add nsw i32 %6, 1
  store i32 %add, ptr %index, align 4
  br label %for.end

if.end:                                           ; preds = %for.body
  br label %for.inc

for.inc:                                          ; preds = %if.end
  %7 = load i32, ptr %i, align 4
  %inc = add nsw i32 %7, 1
  store i32 %inc, ptr %i, align 4
  br label %for.cond, !llvm.loop !5

for.end:                                          ; preds = %if.then, %for.cond
  %8 = load i32, ptr %index, align 4
  call void @_ZNSt7__cxx119to_stringEi(ptr sret(%"class.std::__cxx11::basic_string") align 8 %agg.result, i32 noundef %8) #3
  ret void
}