; Function Attrs: mustprogress nounwind uwtable
define dso_local void @_ZNK9struct_pb8compiler19OneofFieldGenerator5indexB5cxx11Ev(ptr noalias sret(%"class.std::__cxx11::basic_string") align 8 %agg.result, ptr nocapture noundef nonnull readonly align 8 dereferenceable(64) %this) local_unnamed_addr #4 align 2 {
entry:
  %d_ = getelementptr inbounds i8, ptr %this, i64 56
  %0 = load ptr, ptr %d_, align 8
  %containing_oneof_.i = getelementptr inbounds i8, ptr %0, i64 88
  %1 = load ptr, ptr %containing_oneof_.i, align 8
  %field_count_.i = getelementptr inbounds i8, ptr %1, i64 24
  %2 = load i32, ptr %field_count_.i, align 8
  %cmp6 = icmp sgt i32 %2, 0
  br i1 %cmp6, label %for.body.lr.ph, label %for.end

for.body.lr.ph:                                   ; preds = %entry
  %fields_.i = getelementptr inbounds i8, ptr %1, i64 32
  %3 = load ptr, ptr %fields_.i, align 8
  %wide.trip.count = zext nneg i32 %2 to i64
  br label %for.body

for.body:                                         ; preds = %for.body.lr.ph, %for.inc
  %indvars.iv = phi i64 [ 0, %for.body.lr.ph ], [ %indvars.iv.next, %for.inc ]
  %arrayidx.i = getelementptr inbounds ptr, ptr %3, i64 %indvars.iv
  %4 = load ptr, ptr %arrayidx.i, align 8
  %cmp5 = icmp eq ptr %4, %0
  br i1 %cmp5, label %if.then, label %for.inc

if.then:                                          ; preds = %for.body
  %5 = trunc i64 %indvars.iv to i32
  %add = add nuw nsw i32 %5, 1
  br label %for.end

for.inc:                                          ; preds = %for.body
  %indvars.iv.next = add nuw nsw i64 %indvars.iv, 1
  %exitcond.not = icmp eq i64 %indvars.iv.next, %wide.trip.count
  br i1 %exitcond.not, label %for.end, label %for.body, !llvm.loop !8

for.end:                                          ; preds = %for.inc, %entry, %if.then
  %index.0 = phi i32 [ %add, %if.then ], [ 0, %entry ], [ 0, %for.inc ]
  tail call void @_ZNSt7__cxx119to_stringEi(ptr sret(%"class.std::__cxx11::basic_string") align 8 %agg.result, i32 noundef %index.0) #19
  ret void
}